target datalayout = "e-m:e-p270:32:32-p271:32:32-p272:64:64-i64:64-i128:128-f80:128-n8:16:32:64-S128"
target triple = "x86_64-pc-linux-gnu"

%struct.ident_t = type { i32, i32, i32, i32, ptr }
%"struct.faiss::(anonymous namespace)::ArgsortComparator" = type { ptr }
%"struct.std::_Vector_base" = type { %"struct.std::_Vector_base<faiss::(anonymous namespace)::SegmentS, std::allocator<faiss::(anonymous namespace)::SegmentS>>::_Vector_impl" }
%"struct.std::_Vector_base<faiss::(anonymous namespace)::SegmentS, std::allocator<faiss::(anonymous namespace)::SegmentS>>::_Vector_impl" = type { %"struct.std::_Vector_base<faiss::(anonymous namespace)::SegmentS, std::allocator<faiss::(anonymous namespace)::SegmentS>>::_Vector_impl_data" }
%"struct.std::_Vector_base<faiss::(anonymous namespace)::SegmentS, std::allocator<faiss::(anonymous namespace)::SegmentS>>::_Vector_impl_data" = type { ptr, ptr, ptr }
%"struct.faiss::(anonymous namespace)::SegmentS" = type { i64, i64 }

@2 = private unnamed_addr constant %struct.ident_t { i32 0, i32 514, i32 0, i32 22, ptr @0 }, align 8

; Function Attrs: mustprogress nounwind uwtable
define internal noundef i64 @_ZNK5faiss12_GLOBAL__N_18SegmentS3lenEv(ptr noundef nonnull align 8 dereferenceable(16) %0) #2 align 2 {
  %2 = alloca ptr, align 8
  store ptr %0, ptr %2, align 8
  %3 = load ptr, ptr %2, align 8
  %4 = getelementptr inbounds %"struct.faiss::(anonymous namespace)::SegmentS", ptr %3, i32 0, i32 1
  %5 = load i64, ptr %4, align 8
  %6 = getelementptr inbounds %"struct.faiss::(anonymous namespace)::SegmentS", ptr %3, i32 0, i32 0
  %7 = load i64, ptr %6, align 8
  %8 = sub i64 %5, %7
  ret i64 %8
}

; Function Attrs: mustprogress nounwind uwtable
define internal noundef zeroext i1 @_ZNK5faiss12_GLOBAL__N_117ArgsortComparatorclEmm(ptr noundef nonnull align 8 dereferenceable(8) %0, i64 noundef %1, i64 noundef %2) #2 align 2 {
  %4 = alloca ptr, align 8
  %5 = alloca i64, align 8
  %6 = alloca i64, align 8
  store ptr %0, ptr %4, align 8
  store i64 %1, ptr %5, align 8
  store i64 %2, ptr %6, align 8
  %7 = load ptr, ptr %4, align 8
  %8 = getelementptr inbounds %"struct.faiss::(anonymous namespace)::ArgsortComparator", ptr %7, i32 0, i32 0
  %9 = load ptr, ptr %8, align 8
  %10 = load i64, ptr %5, align 8
  %11 = getelementptr inbounds float, ptr %9, i64 %10
  %12 = load float, ptr %11, align 4
  %13 = getelementptr inbounds %"struct.faiss::(anonymous namespace)::ArgsortComparator", ptr %7, i32 0, i32 0
  %14 = load ptr, ptr %13, align 8
  %15 = load i64, ptr %6, align 8
  %16 = getelementptr inbounds float, ptr %14, i64 %15
  %17 = load float, ptr %16, align 4
  %18 = fcmp olt float %12, %17
  ret i1 %18
}

; Function Attrs: mustprogress nounwind uwtable
define internal noundef nonnull align 8 dereferenceable(16) ptr @_ZNSt6vectorIN5faiss12_GLOBAL__N_18SegmentSESaIS2_EEixEm(ptr noundef nonnull align 8 dereferenceable(24) %0, i64 noundef %1) #2 align 2 {
  %3 = alloca ptr, align 8
  %4 = alloca i64, align 8
  store ptr %0, ptr %3, align 8
  store i64 %1, ptr %4, align 8
  %5 = load ptr, ptr %3, align 8
  %6 = getelementptr inbounds %"struct.std::_Vector_base", ptr %5, i32 0, i32 0
  %7 = getelementptr inbounds %"struct.std::_Vector_base<faiss::(anonymous namespace)::SegmentS, std::allocator<faiss::(anonymous namespace)::SegmentS>>::_Vector_impl_data", ptr %6, i32 0, i32 0
  %8 = load ptr, ptr %7, align 8
  %9 = load i64, ptr %4, align 8
  %10 = getelementptr inbounds %"struct.faiss::(anonymous namespace)::SegmentS", ptr %8, i64 %9
  ret ptr %10
}

; Function Attrs: norecurse nounwind uwtable
define internal void @_ZN5faiss12_GLOBAL__N_114parallel_mergeImEEvPKT_PS2_RNS0_8SegmentSES7_iRKNS0_17ArgsortComparatorE.omp_outlined.4(ptr noalias noundef %0, ptr noalias noundef %1, ptr noundef nonnull align 4 dereferenceable(4) %2, ptr noundef nonnull align 8 dereferenceable(24) %3, ptr noundef nonnull align 8 dereferenceable(24) %4, ptr noundef nonnull align 8 dereferenceable(24) %5, ptr noundef nonnull align 8 dereferenceable(8) %6, ptr noundef nonnull align 8 dereferenceable(8) %7, ptr noundef nonnull align 8 dereferenceable(8) %8) #6 {
  %10 = alloca ptr, align 8
  %11 = alloca ptr, align 8
  %12 = alloca ptr, align 8
  %13 = alloca ptr, align 8
  %14 = alloca ptr, align 8
  %15 = alloca ptr, align 8
  %16 = alloca ptr, align 8
  %17 = alloca ptr, align 8
  %18 = alloca ptr, align 8
  %19 = alloca ptr, align 8
  %20 = alloca i32, align 4
  %21 = alloca i32, align 4
  %22 = alloca i32, align 4
  %23 = alloca i32, align 4
  %24 = alloca i32, align 4
  %25 = alloca i32, align 4
  %26 = alloca i32, align 4
  %27 = alloca i32, align 4
  %28 = alloca i32, align 4
  %29 = alloca %"struct.faiss::(anonymous namespace)::SegmentS", align 8
  %30 = alloca %"struct.faiss::(anonymous namespace)::SegmentS", align 8
  %31 = alloca %"struct.faiss::(anonymous namespace)::SegmentS", align 8
  store ptr %0, ptr %10, align 8
  store ptr %1, ptr %11, align 8
  store ptr %2, ptr %12, align 8
  store ptr %3, ptr %13, align 8
  store ptr %4, ptr %14, align 8
  store ptr %5, ptr %15, align 8
  store ptr %6, ptr %16, align 8
  store ptr %7, ptr %17, align 8
  store ptr %8, ptr %18, align 8
  %32 = load ptr, ptr %12, align 8
  %33 = load ptr, ptr %13, align 8
  %34 = load ptr, ptr %14, align 8
  %35 = load ptr, ptr %15, align 8
  %36 = load ptr, ptr %16, align 8
  %37 = load ptr, ptr %17, align 8
  %38 = load ptr, ptr %18, align 8
  store ptr %36, ptr %19, align 8
  %39 = load i32, ptr %32, align 4
  store i32 %39, ptr %21, align 4
  %40 = load i32, ptr %21, align 4
  %41 = sub nsw i32 %40, 0
  %42 = sdiv i32 %41, 1
  %43 = sub nsw i32 %42, 1
  store i32 %43, ptr %22, align 4
  store i32 0, ptr %23, align 4
  %44 = load i32, ptr %21, align 4
  %45 = icmp slt i32 0, %44
  br i1 %45, label %46, label %180

46:                                               ; preds = %9
  store i32 0, ptr %24, align 4
  %47 = load i32, ptr %22, align 4
  store i32 %47, ptr %25, align 4
  store i32 1, ptr %26, align 4
  store i32 0, ptr %27, align 4
  %48 = load ptr, ptr %10, align 8
  %49 = load i32, ptr %48, align 4
  call void @__kmpc_for_static_init_4(ptr @2, i32 %49, i32 34, ptr %27, ptr %24, ptr %25, ptr %26, i32 1, i32 1)
  %50 = load i32, ptr %25, align 4
  %51 = load i32, ptr %22, align 4
  %52 = icmp sgt i32 %50, %51
  br i1 %52, label %53, label %55

53:                                               ; preds = %46
  %54 = load i32, ptr %22, align 4
  br label %57

55:                                               ; preds = %46
  %56 = load i32, ptr %25, align 4
  br label %57

57:                                               ; preds = %55, %53
  %58 = phi i32 [ %54, %53 ], [ %56, %55 ]
  store i32 %58, ptr %25, align 4
  %59 = load i32, ptr %24, align 4
  store i32 %59, ptr %20, align 4
  br label %60

60:                                               ; preds = %173, %57
  %61 = load i32, ptr %20, align 4
  %62 = load i32, ptr %25, align 4
  %63 = icmp sle i32 %61, %62
  br i1 %63, label %64, label %176

64:                                               ; preds = %60
  %65 = load i32, ptr %20, align 4
  %66 = mul nsw i32 %65, 1
  %67 = add nsw i32 0, %66
  store i32 %67, ptr %28, align 4
  %68 = load i32, ptr %28, align 4
  %69 = sext i32 %68 to i64
  %70 = call noundef nonnull align 8 dereferenceable(16) ptr @_ZNSt6vectorIN5faiss12_GLOBAL__N_18SegmentSESaIS2_EEixEm(ptr noundef nonnull align 8 dereferenceable(24) %33, i64 noundef %69) #7
  call void @llvm.memcpy.p0.p0.i64(ptr align 8 %29, ptr align 8 %70, i64 16, i1 false)
  %71 = load i32, ptr %28, align 4
  %72 = sext i32 %71 to i64
  %73 = call noundef nonnull align 8 dereferenceable(16) ptr @_ZNSt6vectorIN5faiss12_GLOBAL__N_18SegmentSESaIS2_EEixEm(ptr noundef nonnull align 8 dereferenceable(24) %34, i64 noundef %72) #7
  call void @llvm.memcpy.p0.p0.i64(ptr align 8 %30, ptr align 8 %73, i64 16, i1 false)
  %74 = load i32, ptr %28, align 4
  %75 = sext i32 %74 to i64
  %76 = call noundef nonnull align 8 dereferenceable(16) ptr @_ZNSt6vectorIN5faiss12_GLOBAL__N_18SegmentSESaIS2_EEixEm(ptr noundef nonnull align 8 dereferenceable(24) %35, i64 noundef %75) #7
  call void @llvm.memcpy.p0.p0.i64(ptr align 8 %31, ptr align 8 %76, i64 16, i1 false)
  %77 = getelementptr inbounds %"struct.faiss::(anonymous namespace)::SegmentS", ptr %30, i32 0, i32 0
  %78 = load i64, ptr %77, align 8
  %79 = getelementptr inbounds %"struct.faiss::(anonymous namespace)::SegmentS", ptr %30, i32 0, i32 1
  %80 = load i64, ptr %79, align 8
  %81 = icmp ult i64 %78, %80
  br i1 %81, label %82, label %142

82:                                               ; preds = %64
  %83 = getelementptr inbounds %"struct.faiss::(anonymous namespace)::SegmentS", ptr %31, i32 0, i32 0
  %84 = load i64, ptr %83, align 8
  %85 = getelementptr inbounds %"struct.faiss::(anonymous namespace)::SegmentS", ptr %31, i32 0, i32 1
  %86 = load i64, ptr %85, align 8
  %87 = icmp ult i64 %84, %86
  br i1 %87, label %88, label %142

88:                                               ; preds = %82
  br label %89

89:                                               ; preds = %140, %88
  %90 = load ptr, ptr %19, align 8
  %91 = load ptr, ptr %37, align 8
  %92 = getelementptr inbounds %"struct.faiss::(anonymous namespace)::SegmentS", ptr %30, i32 0, i32 0
  %93 = load i64, ptr %92, align 8
  %94 = getelementptr inbounds i64, ptr %91, i64 %93
  %95 = load i64, ptr %94, align 8
  %96 = load ptr, ptr %37, align 8
  %97 = getelementptr inbounds %"struct.faiss::(anonymous namespace)::SegmentS", ptr %31, i32 0, i32 0
  %98 = load i64, ptr %97, align 8
  %99 = getelementptr inbounds i64, ptr %96, i64 %98
  %100 = load i64, ptr %99, align 8
  %101 = call noundef zeroext i1 @_ZNK5faiss12_GLOBAL__N_117ArgsortComparatorclEmm(ptr noundef nonnull align 8 dereferenceable(8) %90, i64 noundef %95, i64 noundef %100)
  br i1 %101, label %102, label %121

102:                                              ; preds = %89
  %103 = load ptr, ptr %37, align 8
  %104 = getelementptr inbounds %"struct.faiss::(anonymous namespace)::SegmentS", ptr %30, i32 0, i32 0
  %105 = load i64, ptr %104, align 8
  %106 = add i64 %105, 1
  store i64 %106, ptr %104, align 8
  %107 = getelementptr inbounds i64, ptr %103, i64 %105
  %108 = load i64, ptr %107, align 8
  %109 = load ptr, ptr %38, align 8
  %110 = getelementptr inbounds %"struct.faiss::(anonymous namespace)::SegmentS", ptr %29, i32 0, i32 0
  %111 = load i64, ptr %110, align 8
  %112 = add i64 %111, 1
  store i64 %112, ptr %110, align 8
  %113 = getelementptr inbounds i64, ptr %109, i64 %111
  store i64 %108, ptr %113, align 8
  %114 = getelementptr inbounds %"struct.faiss::(anonymous namespace)::SegmentS", ptr %30, i32 0, i32 0
  %115 = load i64, ptr %114, align 8
  %116 = getelementptr inbounds %"struct.faiss::(anonymous namespace)::SegmentS", ptr %30, i32 0, i32 1
  %117 = load i64, ptr %116, align 8
  %118 = icmp eq i64 %115, %117
  br i1 %118, label %119, label %120

119:                                              ; preds = %102
  br label %141

120:                                              ; preds = %102
  br label %140

121:                                              ; preds = %89
  %122 = load ptr, ptr %37, align 8
  %123 = getelementptr inbounds %"struct.faiss::(anonymous namespace)::SegmentS", ptr %31, i32 0, i32 0
  %124 = load i64, ptr %123, align 8
  %125 = add i64 %124, 1
  store i64 %125, ptr %123, align 8
  %126 = getelementptr inbounds i64, ptr %122, i64 %124
  %127 = load i64, ptr %126, align 8
  %128 = load ptr, ptr %38, align 8
  %129 = getelementptr inbounds %"struct.faiss::(anonymous namespace)::SegmentS", ptr %29, i32 0, i32 0
  %130 = load i64, ptr %129, align 8
  %131 = add i64 %130, 1
  store i64 %131, ptr %129, align 8
  %132 = getelementptr inbounds i64, ptr %128, i64 %130
  store i64 %127, ptr %132, align 8
  %133 = getelementptr inbounds %"struct.faiss::(anonymous namespace)::SegmentS", ptr %31, i32 0, i32 0
  %134 = load i64, ptr %133, align 8
  %135 = getelementptr inbounds %"struct.faiss::(anonymous namespace)::SegmentS", ptr %31, i32 0, i32 1
  %136 = load i64, ptr %135, align 8
  %137 = icmp eq i64 %134, %136
  br i1 %137, label %138, label %139

138:                                              ; preds = %121
  br label %141

139:                                              ; preds = %121
  br label %140

140:                                              ; preds = %139, %120
  br label %89, !llvm.loop !28

141:                                              ; preds = %138, %119
  br label %142

142:                                              ; preds = %141, %82, %64
  %143 = call noundef i64 @_ZNK5faiss12_GLOBAL__N_18SegmentS3lenEv(ptr noundef nonnull align 8 dereferenceable(16) %30)
  %144 = icmp ugt i64 %143, 0
  br i1 %144, label %145, label %156

145:                                              ; preds = %142
  %146 = load ptr, ptr %38, align 8
  %147 = getelementptr inbounds %"struct.faiss::(anonymous namespace)::SegmentS", ptr %29, i32 0, i32 0
  %148 = load i64, ptr %147, align 8
  %149 = getelementptr inbounds i64, ptr %146, i64 %148
  %150 = load ptr, ptr %37, align 8
  %151 = getelementptr inbounds %"struct.faiss::(anonymous namespace)::SegmentS", ptr %30, i32 0, i32 0
  %152 = load i64, ptr %151, align 8
  %153 = getelementptr inbounds i64, ptr %150, i64 %152
  %154 = call noundef i64 @_ZNK5faiss12_GLOBAL__N_18SegmentS3lenEv(ptr noundef nonnull align 8 dereferenceable(16) %30)
  %155 = mul i64 %154, 8
  call void @llvm.memcpy.p0.p0.i64(ptr align 8 %149, ptr align 8 %153, i64 %155, i1 false)
  br label %171

156:                                              ; preds = %142
  %157 = call noundef i64 @_ZNK5faiss12_GLOBAL__N_18SegmentS3lenEv(ptr noundef nonnull align 8 dereferenceable(16) %31)
  %158 = icmp ugt i64 %157, 0
  br i1 %158, label %159, label %170

159:                                              ; preds = %156
  %160 = load ptr, ptr %38, align 8
  %161 = getelementptr inbounds %"struct.faiss::(anonymous namespace)::SegmentS", ptr %29, i32 0, i32 0
  %162 = load i64, ptr %161, align 8
  %163 = getelementptr inbounds i64, ptr %160, i64 %162
  %164 = load ptr, ptr %37, align 8
  %165 = getelementptr inbounds %"struct.faiss::(anonymous namespace)::SegmentS", ptr %31, i32 0, i32 0
  %166 = load i64, ptr %165, align 8
  %167 = getelementptr inbounds i64, ptr %164, i64 %166
  %168 = call noundef i64 @_ZNK5faiss12_GLOBAL__N_18SegmentS3lenEv(ptr noundef nonnull align 8 dereferenceable(16) %31)
  %169 = mul i64 %168, 8
  call void @llvm.memcpy.p0.p0.i64(ptr align 8 %163, ptr align 8 %167, i64 %169, i1 false)
  br label %170

170:                                              ; preds = %159, %156
  br label %171

171:                                              ; preds = %170, %145
  br label %172

172:                                              ; preds = %171
  br label %173

173:                                              ; preds = %172
  %174 = load i32, ptr %20, align 4
  %175 = add nsw i32 %174, 1
  store i32 %175, ptr %20, align 4
  br label %60

176:                                              ; preds = %60
  br label %177

177:                                              ; preds = %176
  %178 = load ptr, ptr %10, align 8
  %179 = load i32, ptr %178, align 4
  call void @__kmpc_for_static_fini(ptr @2, i32 %179)
  br label %180

180:                                              ; preds = %177, %9
  ret void
}