; Function Attrs: norecurse nounwind uwtable
define internal void @_ZN5faiss12_GLOBAL__N_114parallel_mergeImEEvPKT_PS2_RNS0_8SegmentSES7_iRKNS0_17ArgsortComparatorE.omp_outlined.4(ptr noalias nocapture noundef readonly %0, ptr noalias nocapture readnone %1, ptr nocapture noundef nonnull readonly align 4 dereferenceable(4) %2, ptr nocapture noundef nonnull readonly align 8 dereferenceable(24) %3, ptr nocapture noundef nonnull readonly align 8 dereferenceable(24) %4, ptr nocapture noundef nonnull readonly align 8 dereferenceable(24) %5, ptr nocapture noundef nonnull readonly align 8 dereferenceable(8) %6, ptr nocapture noundef nonnull readonly align 8 dereferenceable(8) %7, ptr nocapture noundef nonnull readonly align 8 dereferenceable(8) %8) #8 {
  %10 = alloca i32, align 4
  %11 = alloca i32, align 4
  %12 = alloca i32, align 4
  %13 = alloca i32, align 4
  %14 = load i32, ptr %2, align 4
  %15 = icmp sgt i32 %14, 0
  br i1 %15, label %16, label %59

16:                                               ; preds = %9
  %17 = add nsw i32 %14, -1
  store i32 0, ptr %10, align 4
  store i32 %17, ptr %11, align 4
  store i32 1, ptr %12, align 4
  store i32 0, ptr %13, align 4
  %18 = load i32, ptr %0, align 4
  call void @__kmpc_for_static_init_4(ptr nonnull @2, i32 %18, i32 34, ptr nonnull %13, ptr nonnull %10, ptr nonnull %11, ptr nonnull %12, i32 1, i32 1)
  %19 = load i32, ptr %11, align 4
  %20 = call i32 @llvm.smin.i32(i32 %19, i32 %17)
  store i32 %20, ptr %11, align 4
  %21 = load i32, ptr %10, align 4
  %.not56 = icmp sgt i32 %21, %20
  br i1 %.not56, label %._crit_edge, label %.lr.ph.preheader

.lr.ph.preheader:                                 ; preds = %16
  %22 = sext i32 %21 to i64
  br label %.lr.ph

.lr.ph:                                           ; preds = %.lr.ph.preheader, %56
  %indvars.iv = phi i64 [ %22, %.lr.ph.preheader ], [ %indvars.iv.next, %56 ]
  %.val27 = load ptr, ptr %3, align 8
  %23 = getelementptr inbounds %"struct.faiss::(anonymous namespace)::SegmentS", ptr %.val27, i64 %indvars.iv
  %.sroa.0.0.copyload = load i64, ptr %23, align 8
  %.val26 = load ptr, ptr %4, align 8
  %24 = getelementptr inbounds %"struct.faiss::(anonymous namespace)::SegmentS", ptr %.val26, i64 %indvars.iv
  %.sroa.044.0.copyload = load i64, ptr %24, align 8
  %.sroa.949.0..sroa_idx = getelementptr inbounds i8, ptr %24, i64 8
  %.sroa.949.0.copyload = load i64, ptr %.sroa.949.0..sroa_idx, align 8
  %.val25 = load ptr, ptr %5, align 8
  %25 = getelementptr inbounds %"struct.faiss::(anonymous namespace)::SegmentS", ptr %.val25, i64 %indvars.iv
  %.sroa.0.0.copyload40 = load i64, ptr %25, align 8
  %.sroa.9.0..sroa_idx = getelementptr inbounds i8, ptr %25, i64 8
  %.sroa.9.0.copyload = load i64, ptr %.sroa.9.0..sroa_idx, align 8
  %26 = icmp ult i64 %.sroa.044.0.copyload, %.sroa.949.0.copyload
  %27 = icmp ult i64 %.sroa.0.0.copyload40, %.sroa.9.0.copyload
  %or.cond = select i1 %26, i1 %27, i1 false
  br i1 %or.cond, label %.preheader.outer, label %.loopexit

.preheader.outer:                                 ; preds = %.lr.ph, %41
  %.sroa.044.0.ph = phi i64 [ %42, %41 ], [ %.sroa.044.0.copyload, %.lr.ph ]
  %.sroa.0.053.ph = phi i64 [ %.sroa.0.053, %41 ], [ %.sroa.0.0.copyload40, %.lr.ph ]
  %.sroa.0.0.ph = phi i64 [ %39, %41 ], [ %.sroa.0.0.copyload, %.lr.ph ]
  br label %.preheader

.preheader:                                       ; preds = %.preheader.outer, %44
  %.sroa.0.053 = phi i64 [ %45, %44 ], [ %.sroa.0.053.ph, %.preheader.outer ]
  %.sroa.0.0 = phi i64 [ %39, %44 ], [ %.sroa.0.0.ph, %.preheader.outer ]
  %28 = load ptr, ptr %7, align 8
  %29 = getelementptr inbounds i64, ptr %28, i64 %.sroa.044.0.ph
  %30 = load i64, ptr %29, align 8
  %31 = getelementptr inbounds i64, ptr %28, i64 %.sroa.0.053
  %32 = load i64, ptr %31, align 8
  %.val = load ptr, ptr %6, align 8
  %33 = getelementptr inbounds float, ptr %.val, i64 %30
  %34 = load float, ptr %33, align 4
  %35 = getelementptr inbounds float, ptr %.val, i64 %32
  %36 = load float, ptr %35, align 4
  %37 = fcmp olt float %34, %36
  %38 = load ptr, ptr %8, align 8
  %39 = add i64 %.sroa.0.0, 1
  %40 = getelementptr inbounds i64, ptr %38, i64 %.sroa.0.0
  br i1 %37, label %41, label %44

41:                                               ; preds = %.preheader
  %42 = add i64 %.sroa.044.0.ph, 1
  store i64 %30, ptr %40, align 8
  %43 = icmp eq i64 %42, %.sroa.949.0.copyload
  br i1 %43, label %.loopexit.thread, label %.preheader.outer, !llvm.loop !28

44:                                               ; preds = %.preheader
  %45 = add i64 %.sroa.0.053, 1
  store i64 %32, ptr %40, align 8
  %46 = icmp eq i64 %45, %.sroa.9.0.copyload
  br i1 %46, label %.loopexit, label %.preheader, !llvm.loop !28

.loopexit:                                        ; preds = %44, %.lr.ph
  %.sroa.044.2 = phi i64 [ %.sroa.044.0.copyload, %.lr.ph ], [ %.sroa.044.0.ph, %44 ]
  %.sroa.0.255 = phi i64 [ %.sroa.0.0.copyload40, %.lr.ph ], [ %.sroa.9.0.copyload, %44 ]
  %.sroa.0.2 = phi i64 [ %.sroa.0.0.copyload, %.lr.ph ], [ %39, %44 ]
  %.not23 = icmp eq i64 %.sroa.949.0.copyload, %.sroa.044.2
  br i1 %.not23, label %.loopexit.thread, label %47

47:                                               ; preds = %.loopexit
  %48 = sub i64 %.sroa.949.0.copyload, %.sroa.044.2
  br label %.sink.split

.loopexit.thread:                                 ; preds = %41, %.loopexit
  %.sroa.0.264 = phi i64 [ %.sroa.0.2, %.loopexit ], [ %39, %41 ]
  %.sroa.0.25563 = phi i64 [ %.sroa.0.255, %.loopexit ], [ %.sroa.0.053, %41 ]
  %.not24 = icmp eq i64 %.sroa.9.0.copyload, %.sroa.0.25563
  br i1 %.not24, label %56, label %49

49:                                               ; preds = %.loopexit.thread
  %50 = sub i64 %.sroa.9.0.copyload, %.sroa.0.25563
  br label %.sink.split

.sink.split:                                      ; preds = %47, %49
  %.sroa.0.264.sink = phi i64 [ %.sroa.0.264, %49 ], [ %.sroa.0.2, %47 ]
  %.sroa.0.25563.sink = phi i64 [ %.sroa.0.25563, %49 ], [ %.sroa.044.2, %47 ]
  %.sink70 = phi i64 [ %50, %49 ], [ %48, %47 ]
  %51 = load ptr, ptr %8, align 8
  %52 = getelementptr inbounds i64, ptr %51, i64 %.sroa.0.264.sink
  %53 = load ptr, ptr %7, align 8
  %54 = getelementptr inbounds i64, ptr %53, i64 %.sroa.0.25563.sink
  %55 = shl i64 %.sink70, 3
  call void @llvm.memcpy.p0.p0.i64(ptr align 8 %52, ptr align 8 %54, i64 %55, i1 false)
  br label %56

56:                                               ; preds = %.sink.split, %.loopexit.thread
  %indvars.iv.next = add nsw i64 %indvars.iv, 1
  %57 = load i32, ptr %11, align 4
  %58 = sext i32 %57 to i64
  %.not.not = icmp slt i64 %indvars.iv, %58
  br i1 %.not.not, label %.lr.ph, label %._crit_edge

._crit_edge:                                      ; preds = %56, %16
  call void @__kmpc_for_static_fini(ptr nonnull @2, i32 %18)
  br label %59

59:                                               ; preds = %._crit_edge, %9
  ret void
}